target datalayout = "e-m:e-p270:32:32-p271:32:32-p272:64:64-i64:64-i128:128-f80:128-n8:16:32:64-S128"
target triple = "x86_64-pc-linux-gnu"

@proto_vt = internal global i32 0, align 4
@.str.501 = private unnamed_addr constant [18 x i8] c"isobus.pdu_format\00", align 1

; Function Attrs: null_pointer_is_valid sspstrong uwtable
define hidden void @proto_reg_handoff_isobus_vt() #0 {
  %1 = alloca ptr, align 8
  %2 = alloca ptr, align 8
  call void @llvm.lifetime.start.p0(i64 8, ptr %1) #5
  call void @llvm.lifetime.start.p0(i64 8, ptr %2) #5
  %3 = load i32, ptr @proto_vt, align 4
  %4 = call ptr @create_dissector_handle(ptr noundef @dissect_vt_to_ecu, i32 noundef %3)
  store ptr %4, ptr %1, align 8
  %5 = load i32, ptr @proto_vt, align 4
  %6 = call ptr @create_dissector_handle(ptr noundef @dissect_ecu_to_vt, i32 noundef %5)
  store ptr %6, ptr %2, align 8
  %7 = load ptr, ptr %1, align 8
  call void @dissector_add_uint(ptr noundef @.str.501, i32 noundef 230, ptr noundef %7)
  %8 = load ptr, ptr %2, align 8
  call void @dissector_add_uint(ptr noundef @.str.501, i32 noundef 231, ptr noundef %8)
  call void @llvm.lifetime.end.p0(i64 8, ptr %2) #5
  call void @llvm.lifetime.end.p0(i64 8, ptr %1) #5
  ret void
}