; Function Attrs: null_pointer_is_valid sspstrong uwtable
define hidden void @proto_reg_handoff_isobus_vt() local_unnamed_addr #0 {
  %1 = load i32, ptr @proto_vt, align 4
  %2 = tail call ptr @create_dissector_handle(ptr noundef nonnull @dissect_vt_to_ecu, i32 noundef %1)
  %3 = load i32, ptr @proto_vt, align 4
  %4 = tail call ptr @create_dissector_handle(ptr noundef nonnull @dissect_ecu_to_vt, i32 noundef %3)
  tail call void @dissector_add_uint(ptr noundef nonnull @.str.501, i32 noundef 230, ptr noundef %2)
  tail call void @dissector_add_uint(ptr noundef nonnull @.str.501, i32 noundef 231, ptr noundef %4)
  ret void
}